(cnumpy.core.multiarray
scalar
p0
(cnumpy
dtype
p1
(S'f8'
p2
I0
I1
tp3
Rp4
(I3
S'<'
p5
NNNI-1
I-1
I0
tp6
bS'~\xed\x03\x92\xf8\xc4\x8a?'
p7
tp8
Rp9
F0.01
g0
(g4
S'\x8eX\xae\x12\x15\x82\x98@'
p10
tp11
Rp12
cnumpy.core.multiarray
_reconstruct
p13
(cnumpy
ndarray
p14
(I0
tp15
S'b'
p16
tp17
Rp18
(I1
(I2
tp19
g4
I00
S'\xc3\xf5(\\\x8f\xc2\xd5?{\x14\xaeG\xe1zt?'
p20
tp21
bg13
(g14
(I0
tp22
g16
tp23
Rp24
(I1
(I2
tp25
g4
I00
S'\x00\x00\x00\x00\x00\x00\x00\x00\xfc\xa9\xf1\xd2Mb`?'
p26
tp27
bF0.0058
F0.002
F0.00051
F1e-07
F7e-08
F1e-07
F1.0
F1.0
tp28
.