(cnumpy.core.multiarray
scalar
p0
(cnumpy
dtype
p1
(S'f8'
p2
I0
I1
tp3
Rp4
(I3
S'<'
p5
NNNI-1
I-1
I0
tp6
bS'E\xc3\xbb\r\x0fI\xb1?'
p7
tp8
Rp9
F0.01
F1000.0
cnumpy.core.multiarray
_reconstruct
p10
(cnumpy
ndarray
p11
(I0
tp12
S'b'
p13
tp14
Rp15
(I1
(I2
tp16
g4
I00
S'\n\xd7\xa3p=\n\xd7?{\x14\xaeG\xe1z\x84?'
p17
tp18
bg10
(g11
(I0
tp19
g13
tp20
Rp21
(I1
(I2
tp22
g4
I00
S'\x00\x00\x00\x00\x00\x00\x00\x80\x00\x00\x00\x00\x00\x00\x00\x00'
p23
tp24
bF0.0058
F0.002
F0.000517
F1e-07
F7e-08
F1.5e-07
F1.0
F10.0
tp25
.