(cnumpy.core.multiarray
scalar
p0
(cnumpy
dtype
p1
(S'f8'
p2
I0
I1
tp3
Rp4
(I3
S'<'
p5
NNNI-1
I-1
I0
tp6
bS'0\xe3\xe1\xf72"\xab?'
p7
tp8
Rp9
F0.01
F1050.0
cnumpy.core.multiarray
_reconstruct
p10
(cnumpy
ndarray
p11
(I0
tp12
S'b'
p13
tp14
Rp15
(I1
(I2
tp16
g4
I00
S'ffffff\xd6?{\x14\xaeG\xe1z\x84?'
p17
tp18
bg10
(g11
(I0
tp19
g13
tp20
Rp21
(I1
(I2
tp22
g4
I00
S'|\x85,\xf6\x88Vx\xbf\x90\xb6\x9cKqUx?'
p23
tp24
bF0.0058
F0.002
F0.00051
F4e-07
F7e-08
F4e-07
F1.0
F170.0
tp25
.