(cnumpy.core.multiarray
scalar
p0
(cnumpy
dtype
p1
(S'f8'
p2
I0
I1
tp3
Rp4
(I3
S'<'
p5
NNNI-1
I-1
I0
tp6
bS'\x95\xd3\x1e(\xc4\x87\xec?'
p7
tp8
Rp9
F0.005
g0
(g4
S'\xf9\x0f\x82\xef\x8c\xb7\x90@'
p10
tp11
Rp12
cnumpy.core.multiarray
_reconstruct
p13
(cnumpy
ndarray
p14
(I0
tp15
S'b'
p16
tp17
Rp18
(I1
(I2
tp19
g4
I00
S'\x00\x00\x00\x00\x00\x00\xd0?{\x14\xaeG\xe1zt?'
p20
tp21
bg13
(g14
(I0
tp22
g16
tp23
Rp24
(I1
(I2
tp25
g4
I00
S'{\x14\xaeG\xe1z\x94?\xfc\xa9\xf1\xd2Mb`?'
p26
tp27
bF0.009
F0.01
F0.00174
F1.7e-06
F7e-08
F5e-07
F1.0
F100.0
tp28
.